target datalayout = "e-m:e-p270:32:32-p271:32:32-p272:64:64-i64:64-i128:128-f80:128-n8:16:32:64-S128"
target triple = "x86_64-pc-linux-gnu"

; Function Attrs: nounwind uwtable
define dso_local void @slurm_xfree(ptr noundef %0) #0 {
  %2 = alloca ptr, align 8
  %3 = alloca ptr, align 8
  store ptr %0, ptr %2, align 8
  %4 = load ptr, ptr %2, align 8
  %5 = load ptr, ptr %4, align 8
  %6 = icmp ne ptr %5, null
  br i1 %6, label %7, label %15

7:                                                ; preds = %1
  call void @llvm.lifetime.start.p0(i64 8, ptr %3) #9
  %8 = load ptr, ptr %2, align 8
  %9 = load ptr, ptr %8, align 8
  %10 = getelementptr inbounds i64, ptr %9, i64 -2
  store ptr %10, ptr %3, align 8
  %11 = load ptr, ptr %3, align 8
  %12 = getelementptr inbounds i64, ptr %11, i64 0
  store i64 0, ptr %12, align 8
  %13 = load ptr, ptr %3, align 8
  call void @free(ptr noundef %13) #9
  %14 = load ptr, ptr %2, align 8
  store ptr null, ptr %14, align 8
  call void @llvm.lifetime.end.p0(i64 8, ptr %3) #9
  br label %15

15:                                               ; preds = %7, %1
  ret void
}