; Function Attrs: mustprogress nounwind willreturn uwtable
define dso_local void @slurm_xfree(ptr noundef captures(none) %0) local_unnamed_addr #9 {
  %2 = load ptr, ptr %0, align 8
  %.not = icmp eq ptr %2, null
  br i1 %.not, label %5, label %3

3:                                                ; preds = %1
  %4 = getelementptr inbounds i8, ptr %2, i64 -16
  store i64 0, ptr %4, align 8
  tail call void @free(ptr noundef nonnull %4) #11
  store ptr null, ptr %0, align 8
  br label %5

5:                                                ; preds = %3, %1
  ret void
}